Certificate:
    Data:
        Version: 3 (0x2)
        Serial Number: 1 (0x1)
    Signature Algorithm: sha256WithRSAEncryption
        Issuer: C=FR, ST=Radius, L=Somewhere, O=Example Inc./emailAddress=admin@example.org, CN=Example Certificate Authority
        Validity
            Not Before: Aug 17 22:52:07 2018 GMT
            Not After : Oct 16 22:52:07 2018 GMT
        Subject: C=FR, ST=Radius, O=Example Inc., CN=Example Server Certificate/emailAddress=admin@example.org
        Subject Public Key Info:
            Public Key Algorithm: rsaEncryption
                Public-Key: (2048 bit)
                Modulus:
                    00:b6:51:58:03:9f:2d:f0:8c:9e:5d:f1:44:88:4c:
                    13:0b:4b:1b:c7:2e:59:1f:2c:32:d3:49:b6:a1:27:
                    2b:4d:c1:67:db:35:36:d0:df:f8:22:f1:7f:1d:3b:
                    87:3c:bc:33:fa:38:8d:4e:39:4e:8e:10:13:e3:de:
                    da:d2:b0:fe:bd:50:04:c9:38:24:ae:cd:8c:06:f8:
                    4b:f4:b2:de:63:93:67:72:5d:14:19:5c:f0:8b:d0:
                    81:02:cd:57:7f:5e:80:9c:e4:ed:72:f6:19:42:55:
                    e4:45:bb:1a:c3:0a:ad:5a:f0:64:2f:2c:f2:be:34:
                    86:76:49:7f:26:3a:bf:f3:e8:e5:0e:39:f6:f7:fa:
                    6f:37:21:fd:c2:6c:5c:18:5c:ad:d7:76:e8:30:3d:
                    b2:ce:e3:39:be:7e:b3:ae:3d:58:90:4e:b8:de:75:
                    f5:1d:eb:cf:61:77:b9:0e:2d:34:81:99:d4:68:84:
                    1d:68:75:25:1d:97:cc:fe:d6:3e:da:1c:a8:41:cf:
                    4f:50:ad:c9:a1:83:97:cc:9d:d3:f6:f3:40:2e:90:
                    f5:58:b1:a8:1b:da:12:a5:b6:69:6f:64:9f:09:97:
                    19:be:64:d1:ba:ab:f3:9a:8a:61:4d:42:77:72:57:
                    7a:e0:4f:80:c3:89:74:2f:8a:a4:11:40:30:6d:e2:
                    7d:45
                Exponent: 65537 (0x10001)
        X509v3 extensions:
            X509v3 Extended Key Usage: 
                TLS Web Server Authentication
            X509v3 CRL Distribution Points: 

                Full Name:
                  URI:http://www.example.com/example_ca.crl

    Signature Algorithm: sha256WithRSAEncryption
         31:2d:96:53:9a:36:ca:57:01:87:1e:77:09:b2:a5:ce:76:46:
         5b:3a:3e:7e:dc:b6:5b:2b:c2:f2:ad:cc:46:77:d9:e4:7d:81:
         5e:31:e6:56:da:b4:13:47:90:36:e7:a3:65:da:95:8c:99:60:
         9a:b1:4c:6e:5e:0e:50:a8:ac:7d:fa:ec:76:ce:09:b1:ce:2c:
         67:db:62:ce:df:02:fe:ae:30:e4:7c:d4:fb:e2:14:28:2d:f8:
         c1:ed:aa:f7:fa:8b:38:2b:73:f8:02:0f:cb:49:4c:16:68:c7:
         b3:bb:63:12:f2:f8:f3:ba:dd:33:75:ef:31:1f:d1:ab:6d:24:
         e3:40:e9:6e:93:ef:38:ad:36:dd:a6:1e:59:95:28:50:cd:f1:
         e7:a1:7a:a0:36:9f:ab:c7:35:0c:c2:58:ba:cc:3f:80:af:44:
         aa:0f:70:ef:f1:ff:aa:89:ee:c5:31:d0:7a:af:36:06:cd:d1:
         e2:73:e2:86:98:1e:95:e5:8f:98:61:5b:b7:32:1d:70:d8:95:
         71:ad:bc:c6:99:a4:fb:3e:28:99:a1:6c:ea:b9:9e:ff:d1:f6:
         6b:ed:5f:6d:6c:5e:77:67:fe:56:c3:28:8a:4f:54:20:97:ab:
         25:89:d8:c3:bd:82:0f:3d:2c:4f:b9:0a:90:40:48:c1:63:62:
         8d:84:1f:d6
-----BEGIN CERTIFICATE-----
MIID2jCCAsKgAwIBAgIBATANBgkqhkiG9w0BAQsFADCBkzELMAkGA1UEBhMCRlIx
DzANBgNVBAgMBlJhZGl1czESMBAGA1UEBwwJU29tZXdoZXJlMRUwEwYDVQQKDAxF
eGFtcGxlIEluYy4xIDAeBgkqhkiG9w0BCQEWEWFkbWluQGV4YW1wbGUub3JnMSYw
JAYDVQQDDB1FeGFtcGxlIENlcnRpZmljYXRlIEF1dGhvcml0eTAeFw0xODA4MTcy
MjUyMDdaFw0xODEwMTYyMjUyMDdaMHwxCzAJBgNVBAYTAkZSMQ8wDQYDVQQIDAZS
YWRpdXMxFTATBgNVBAoMDEV4YW1wbGUgSW5jLjEjMCEGA1UEAwwaRXhhbXBsZSBT
ZXJ2ZXIgQ2VydGlmaWNhdGUxIDAeBgkqhkiG9w0BCQEWEWFkbWluQGV4YW1wbGUu
b3JnMIIBIjANBgkqhkiG9w0BAQEFAAOCAQ8AMIIBCgKCAQEAtlFYA58t8IyeXfFE
iEwTC0sbxy5ZHywy00m2oScrTcFn2zU20N/4IvF/HTuHPLwz+jiNTjlOjhAT497a
0rD+vVAEyTgkrs2MBvhL9LLeY5Nncl0UGVzwi9CBAs1Xf16AnOTtcvYZQlXkRbsa
wwqtWvBkLyzyvjSGdkl/Jjq/8+jlDjn29/pvNyH9wmxcGFyt13boMD2yzuM5vn6z
rj1YkE643nX1HevPYXe5Di00gZnUaIQdaHUlHZfM/tY+2hyoQc9PUK3JoYOXzJ3T
9vNALpD1WLGoG9oSpbZpb2SfCZcZvmTRuqvzmophTUJ3cld64E+Aw4l0L4qkEUAw
beJ9RQIDAQABo08wTTATBgNVHSUEDDAKBggrBgEFBQcDATA2BgNVHR8ELzAtMCug
KaAnhiVodHRwOi8vd3d3LmV4YW1wbGUuY29tL2V4YW1wbGVfY2EuY3JsMA0GCSqG
SIb3DQEBCwUAA4IBAQAxLZZTmjbKVwGHHncJsqXOdkZbOj5+3LZbK8LyrcxGd9nk
fYFeMeZW2rQTR5A256Nl2pWMmWCasUxuXg5QqKx9+ux2zgmxzixn22LO3wL+rjDk
fNT74hQoLfjB7ar3+os4K3P4Ag/LSUwWaMezu2MS8vjzut0zde8xH9GrbSTjQOlu
k+84rTbdph5ZlShQzfHnoXqgNp+rxzUMwli6zD+Ar0SqD3Dv8f+qie7FMdB6rzYG
zdHic+KGmB6V5Y+YYVu3Mh1w2JVxrbzGmaT7PiiZoWzquZ7/0fZr7V9tbF53Z/5W
wyiKT1Qgl6slidjDvYIPPSxPuQqQQEjBY2KNhB/W
-----END CERTIFICATE-----
