Certificate:
    Data:
        Version: 3 (0x2)
        Serial Number: 2 (0x2)
    Signature Algorithm: sha256WithRSAEncryption
        Issuer: C=FR, ST=Radius, L=Somewhere, O=Example Inc./emailAddress=admin@example.org, CN=Example Certificate Authority
        Validity
            Not Before: Aug 17 22:52:07 2018 GMT
            Not After : Oct 16 22:52:07 2018 GMT
        Subject: C=FR, ST=Radius, O=Example Inc., CN=user@example.org/emailAddress=user@example.org
        Subject Public Key Info:
            Public Key Algorithm: rsaEncryption
                Public-Key: (2048 bit)
                Modulus:
                    00:e9:d6:4c:cc:c2:02:ce:7b:67:8b:fb:9c:4e:cd:
                    80:d8:95:4e:9d:e1:28:9f:04:aa:87:ee:80:53:8d:
                    ef:69:c1:31:6d:9a:70:5c:89:06:51:67:13:56:8a:
                    88:bc:be:66:c0:d5:48:d7:ed:6d:4c:4f:25:12:a0:
                    94:9d:33:90:0d:5f:16:44:26:d1:a1:68:23:8c:86:
                    61:64:68:2a:34:f5:91:b0:ed:f0:54:34:ea:b9:4d:
                    31:22:dc:8f:a6:ca:99:7d:ad:e6:9f:99:a3:36:69:
                    60:40:ff:24:2e:2c:54:0e:79:b9:36:3e:11:4b:c5:
                    bd:62:21:f7:ea:af:5b:cd:13:1f:96:aa:2a:a6:5c:
                    c5:80:bb:34:36:48:f6:3e:6f:7d:88:cc:a6:12:97:
                    c4:df:4a:34:5a:bb:91:49:e2:6c:7d:f5:77:cb:e0:
                    4b:f4:ce:76:01:e4:f6:2e:6b:0c:1d:93:c1:aa:01:
                    95:9a:95:d5:7d:6a:9c:a2:94:69:ee:37:dc:27:5f:
                    e2:5e:42:c2:65:3c:1d:4b:9f:07:8c:a3:4c:da:ca:
                    48:32:be:92:b3:bb:1e:f2:7a:5d:29:ce:30:3e:a6:
                    7c:eb:d6:53:ab:8b:ac:7d:de:64:4b:c2:21:0d:63:
                    1e:1a:70:9c:f7:ab:4d:a7:2d:61:6c:8e:a7:41:68:
                    3a:87
                Exponent: 65537 (0x10001)
        X509v3 extensions:
            X509v3 Extended Key Usage: 
                TLS Web Client Authentication
            X509v3 CRL Distribution Points: 

                Full Name:
                  URI:http://www.example.com/example_ca.crl

    Signature Algorithm: sha256WithRSAEncryption
         92:7e:41:0d:34:5d:7e:45:0d:13:85:32:bd:12:14:61:04:6d:
         80:f1:16:6d:7e:7b:4c:b0:93:53:4a:0f:c1:d7:b0:b4:00:7f:
         30:a0:7d:e3:3e:1b:67:65:5d:16:60:2d:db:93:75:85:f1:f6:
         24:1a:11:92:86:05:23:94:25:f6:02:e0:92:34:20:d3:9f:e0:
         82:d5:60:c9:c4:47:0c:26:c8:bd:ef:9b:e3:40:bb:09:73:77:
         09:cb:5a:17:86:54:87:8e:15:aa:ca:64:8b:f9:7c:24:b7:2e:
         99:5d:0f:a4:a7:c4:0b:53:a5:7b:67:be:90:a2:88:96:9a:20:
         6d:bd:47:59:39:54:48:19:38:d2:fd:90:ef:0c:f4:dd:72:8f:
         68:81:10:1d:02:68:e6:11:73:10:32:bb:fe:60:a1:79:3c:c5:
         5f:cc:63:00:a5:a3:6d:e9:94:c1:2b:49:11:19:78:84:87:cb:
         a3:24:75:93:f5:c4:60:a7:6d:bf:c1:2b:af:a6:9c:c5:a7:d4:
         1a:2e:9c:ce:1b:23:4b:0c:ee:5d:78:eb:be:c7:f8:fa:68:10:
         e6:3e:2f:2b:d7:6b:33:9f:39:47:de:28:6e:51:3f:c7:01:bc:
         48:45:65:5e:bd:9a:63:3d:74:8c:a1:ac:bc:19:62:eb:92:d0:
         cf:d2:5e:ce
-----BEGIN CERTIFICATE-----
MIIDzzCCAregAwIBAgIBAjANBgkqhkiG9w0BAQsFADCBkzELMAkGA1UEBhMCRlIx
DzANBgNVBAgMBlJhZGl1czESMBAGA1UEBwwJU29tZXdoZXJlMRUwEwYDVQQKDAxF
eGFtcGxlIEluYy4xIDAeBgkqhkiG9w0BCQEWEWFkbWluQGV4YW1wbGUub3JnMSYw
JAYDVQQDDB1FeGFtcGxlIENlcnRpZmljYXRlIEF1dGhvcml0eTAeFw0xODA4MTcy
MjUyMDdaFw0xODEwMTYyMjUyMDdaMHExCzAJBgNVBAYTAkZSMQ8wDQYDVQQIDAZS
YWRpdXMxFTATBgNVBAoMDEV4YW1wbGUgSW5jLjEZMBcGA1UEAwwQdXNlckBleGFt
cGxlLm9yZzEfMB0GCSqGSIb3DQEJARYQdXNlckBleGFtcGxlLm9yZzCCASIwDQYJ
KoZIhvcNAQEBBQADggEPADCCAQoCggEBAOnWTMzCAs57Z4v7nE7NgNiVTp3hKJ8E
qofugFON72nBMW2acFyJBlFnE1aKiLy+ZsDVSNftbUxPJRKglJ0zkA1fFkQm0aFo
I4yGYWRoKjT1kbDt8FQ06rlNMSLcj6bKmX2t5p+ZozZpYED/JC4sVA55uTY+EUvF
vWIh9+qvW80TH5aqKqZcxYC7NDZI9j5vfYjMphKXxN9KNFq7kUnibH31d8vgS/TO
dgHk9i5rDB2TwaoBlZqV1X1qnKKUae433Cdf4l5CwmU8HUufB4yjTNrKSDK+krO7
HvJ6XSnOMD6mfOvWU6uLrH3eZEvCIQ1jHhpwnPerTactYWyOp0FoOocCAwEAAaNP
ME0wEwYDVR0lBAwwCgYIKwYBBQUHAwIwNgYDVR0fBC8wLTAroCmgJ4YlaHR0cDov
L3d3dy5leGFtcGxlLmNvbS9leGFtcGxlX2NhLmNybDANBgkqhkiG9w0BAQsFAAOC
AQEAkn5BDTRdfkUNE4UyvRIUYQRtgPEWbX57TLCTU0oPwdewtAB/MKB94z4bZ2Vd
FmAt25N1hfH2JBoRkoYFI5Ql9gLgkjQg05/ggtVgycRHDCbIve+b40C7CXN3Ccta
F4ZUh44Vqspki/l8JLcumV0PpKfEC1Ole2e+kKKIlpogbb1HWTlUSBk40v2Q7wz0
3XKPaIEQHQJo5hFzEDK7/mCheTzFX8xjAKWjbemUwStJERl4hIfLoyR1k/XEYKdt
v8Err6acxafUGi6czhsjSwzuXXjrvsf4+mgQ5j4vK9drM585R94oblE/xwG8SEVl
Xr2aYz10jKGsvBli65LQz9Jezg==
-----END CERTIFICATE-----
